; Function Attrs: nounwind uwtable
define internal fastcc noundef i32 @exit_zlib(ptr noundef %0, ptr noundef %1, ptr noundef captures(none) %2, i32 noundef %3) unnamed_addr #0 {
  %5 = load i32, ptr %2, align 4, !tbaa !103
  %6 = icmp eq i32 %5, 4
  br i1 %6, label %7, label %10

7:                                                ; preds = %4
  %8 = load ptr, ptr @Curl_cfree, align 8, !tbaa !104
  %9 = load ptr, ptr %1, align 8, !tbaa !101
  tail call void %8(ptr noundef %9) #8
  store ptr null, ptr %1, align 8, !tbaa !101
  %.pr = load i32, ptr %2, align 4, !tbaa !103
  br label %10

10:                                               ; preds = %7, %4
  %11 = phi i32 [ %.pr, %7 ], [ %5, %4 ]
  %.not = icmp eq i32 %11, 0
  br i1 %.not, label %20, label %12

12:                                               ; preds = %10
  %13 = tail call i32 @cm_zlib_inflateEnd(ptr noundef %1) #8
  %14 = icmp ne i32 %13, 0
  %15 = icmp eq i32 %3, 0
  %or.cond = and i1 %15, %14
  br i1 %or.cond, label %16, label %process_zlib_error.exit

16:                                               ; preds = %12
  %17 = getelementptr i8, ptr %1, i64 48
  %.val = load ptr, ptr %17, align 8, !tbaa !96
  %.not.i = icmp eq ptr %.val, null
  br i1 %.not.i, label %19, label %18

18:                                               ; preds = %16
  tail call void (ptr, ptr, ...) @Curl_failf(ptr noundef %0, ptr noundef nonnull @.str.13, ptr noundef nonnull %.val) #8
  br label %process_zlib_error.exit

19:                                               ; preds = %16
  tail call void (ptr, ptr, ...) @Curl_failf(ptr noundef %0, ptr noundef nonnull @.str.14) #8
  br label %process_zlib_error.exit

process_zlib_error.exit:                          ; preds = %19, %18, %12
  %.1 = phi i32 [ %3, %12 ], [ 61, %18 ], [ 61, %19 ]
  store i32 0, ptr %2, align 4, !tbaa !103
  br label %20

20:                                               ; preds = %process_zlib_error.exit, %10
  %.0 = phi i32 [ %.1, %process_zlib_error.exit ], [ %3, %10 ]
  ret i32 %.0
}